; ModuleID = 'source-C-CXX/61/2931.c'
source_filename = "source-C-CXX/61/2931.c"
target datalayout = "e-m:e-p270:32:32-p271:32:32-p272:64:64-i64:64-f80:128-n8:16:32:64-S128"
target triple = "x86_64-pc-linux-gnu"

; Function Attrs: nounwind sspstrong uwtable
define dso_local void @main() local_unnamed_addr #0 {
  %1 = alloca [10000 x i8], align 16
  %2 = getelementptr inbounds [10000 x i8], [10000 x i8]* %1, i64 0, i64 0
  call void @llvm.lifetime.start.p0i8(i64 10000, i8* nonnull %2) #4
  %3 = call i32 (i8*, ...) bitcast (i32 (...)* @gets to i32 (i8*, ...)*)(i8* nonnull %2) #4
  br label %4

4:                                                ; preds = %12, %0
  %5 = phi i64 [ 0, %0 ], [ %13, %12 ]
  %6 = getelementptr inbounds [10000 x i8], [10000 x i8]* %1, i64 0, i64 %5
  %7 = load i8, i8* %6, align 1, !tbaa !5
  switch i8 %7, label %8 [
    i8 0, label %21
    i8 32, label %14
  ]

8:                                                ; preds = %4
  %9 = sext i8 %7 to i32
  %10 = call i32 @putchar(i32 %9)
  %11 = add nuw i64 %5, 1
  br label %12

12:                                               ; preds = %8, %19, %14
  %13 = phi i64 [ %11, %8 ], [ %15, %19 ], [ %15, %14 ]
  br label %4, !llvm.loop !8

14:                                               ; preds = %4
  %15 = add nuw i64 %5, 1
  %16 = getelementptr inbounds [10000 x i8], [10000 x i8]* %1, i64 0, i64 %15
  %17 = load i8, i8* %16, align 1, !tbaa !5
  %18 = icmp eq i8 %17, 32
  br i1 %18, label %12, label %19

19:                                               ; preds = %14
  %20 = call i32 @putchar(i32 32)
  br label %12

21:                                               ; preds = %4
  call void @llvm.lifetime.end.p0i8(i64 10000, i8* nonnull %2) #4
  ret void
}

; Function Attrs: argmemonly mustprogress nofree nosync nounwind willreturn
declare void @llvm.lifetime.start.p0i8(i64 immarg, i8* nocapture) #1

declare i32 @gets(...) local_unnamed_addr #2

; Function Attrs: argmemonly mustprogress nofree nosync nounwind willreturn
declare void @llvm.lifetime.end.p0i8(i64 immarg, i8* nocapture) #1

; Function Attrs: nofree nounwind
declare noundef i32 @putchar(i32 noundef) local_unnamed_addr #3


!llvm.module.flags = !{!0, !1, !2, !3}
!llvm.ident = !{!4}

!0 = !{i32 1, !"wchar_size", i32 4}
!1 = !{i32 7, !"PIC Level", i32 2}
!2 = !{i32 7, !"PIE Level", i32 2}
!3 = !{i32 7, !"uwtable", i32 1}
!4 = !{!"clang version 13.0.0"}
!5 = !{!6, !6, i64 0}
!6 = !{!"omnipotent char", !7, i64 0}
!7 = !{!"Simple C/C++ TBAA"}
!8 = distinct !{!8, !9}
!9 = !{!"llvm.loop.mustprogress"}
